; ModuleID = '49/1317.c'
source_filename = "49/1317.c"
target datalayout = "e-m:e-p270:32:32-p271:32:32-p272:64:64-i64:64-f80:128-n8:16:32:64-S128"
target triple = "x86_64-pc-linux-gnu"

@.str = private unnamed_addr constant [4 x i8] c"%s\0A\00", align 1

; Function Attrs: noinline nounwind uwtable
define dso_local i32 @ishuiwen(i8* %0) #0 {
  %2 = alloca i8*, align 8
  %3 = alloca i32, align 4
  %4 = alloca i32, align 4
  store i8* %0, i8** %2, align 8
  store i32 1, i32* %4, align 4
  store i32 0, i32* %3, align 4
  br label %5

5:                                                ; preds = %31, %1
  %6 = load i32, i32* %3, align 4
  %7 = sext i32 %6 to i64
  %8 = load i8*, i8** %2, align 8
  %9 = call i64 @strlen(i8* %8) #3
  %10 = icmp ult i64 %7, %9
  br i1 %10, label %11, label %34

11:                                               ; preds = %5
  %12 = load i8*, i8** %2, align 8
  %13 = load i32, i32* %3, align 4
  %14 = sext i32 %13 to i64
  %15 = getelementptr inbounds i8, i8* %12, i64 %14
  %16 = load i8, i8* %15, align 1
  %17 = sext i8 %16 to i32
  %18 = load i8*, i8** %2, align 8
  %19 = load i8*, i8** %2, align 8
  %20 = call i64 @strlen(i8* %19) #3
  %21 = load i32, i32* %3, align 4
  %22 = sext i32 %21 to i64
  %23 = sub i64 %20, %22
  %24 = sub i64 %23, 1
  %25 = getelementptr inbounds i8, i8* %18, i64 %24
  %26 = load i8, i8* %25, align 1
  %27 = sext i8 %26 to i32
  %28 = icmp ne i32 %17, %27
  br i1 %28, label %29, label %30

29:                                               ; preds = %11
  store i32 0, i32* %4, align 4
  br label %34

30:                                               ; preds = %11
  br label %31

31:                                               ; preds = %30
  %32 = load i32, i32* %3, align 4
  %33 = add nsw i32 %32, 1
  store i32 %33, i32* %3, align 4
  br label %5

34:                                               ; preds = %29, %5
  %35 = load i32, i32* %4, align 4
  ret i32 %35
}

; Function Attrs: nounwind readonly
declare dso_local i64 @strlen(i8*) #1

; Function Attrs: noinline nounwind uwtable
define dso_local i32 @main() #0 {
  %1 = alloca i32, align 4
  %2 = alloca [510 x i8], align 16
  %3 = alloca [510 x i8], align 16
  %4 = alloca i32, align 4
  %5 = alloca i32, align 4
  %6 = alloca i32, align 4
  store i32 0, i32* %1, align 4
  %7 = getelementptr inbounds [510 x i8], [510 x i8]* %2, i64 0, i64 0
  %8 = call i32 (i8*, ...) bitcast (i32 (...)* @gets to i32 (i8*, ...)*)(i8* %7)
  store i32 2, i32* %4, align 4
  br label %9

9:                                                ; preds = %61, %0
  %10 = load i32, i32* %4, align 4
  %11 = sext i32 %10 to i64
  %12 = getelementptr inbounds [510 x i8], [510 x i8]* %2, i64 0, i64 0
  %13 = call i64 @strlen(i8* %12) #3
  %14 = icmp ule i64 %11, %13
  br i1 %14, label %15, label %64

15:                                               ; preds = %9
  store i32 0, i32* %5, align 4
  br label %16

16:                                               ; preds = %57, %15
  %17 = load i32, i32* %5, align 4
  %18 = sext i32 %17 to i64
  %19 = getelementptr inbounds [510 x i8], [510 x i8]* %2, i64 0, i64 0
  %20 = call i64 @strlen(i8* %19) #3
  %21 = load i32, i32* %4, align 4
  %22 = sext i32 %21 to i64
  %23 = sub i64 %20, %22
  %24 = icmp ule i64 %18, %23
  br i1 %24, label %25, label %60

25:                                               ; preds = %16
  %26 = load i32, i32* %5, align 4
  store i32 %26, i32* %6, align 4
  br label %27

27:                                               ; preds = %43, %25
  %28 = load i32, i32* %6, align 4
  %29 = load i32, i32* %5, align 4
  %30 = load i32, i32* %4, align 4
  %31 = add nsw i32 %29, %30
  %32 = icmp slt i32 %28, %31
  br i1 %32, label %33, label %46

33:                                               ; preds = %27
  %34 = load i32, i32* %6, align 4
  %35 = sext i32 %34 to i64
  %36 = getelementptr inbounds [510 x i8], [510 x i8]* %2, i64 0, i64 %35
  %37 = load i8, i8* %36, align 1
  %38 = load i32, i32* %6, align 4
  %39 = load i32, i32* %5, align 4
  %40 = sub nsw i32 %38, %39
  %41 = sext i32 %40 to i64
  %42 = getelementptr inbounds [510 x i8], [510 x i8]* %3, i64 0, i64 %41
  store i8 %37, i8* %42, align 1
  br label %43

43:                                               ; preds = %33
  %44 = load i32, i32* %6, align 4
  %45 = add nsw i32 %44, 1
  store i32 %45, i32* %6, align 4
  br label %27

46:                                               ; preds = %27
  %47 = load i32, i32* %4, align 4
  %48 = sext i32 %47 to i64
  %49 = getelementptr inbounds [510 x i8], [510 x i8]* %3, i64 0, i64 %48
  store i8 0, i8* %49, align 1
  %50 = getelementptr inbounds [510 x i8], [510 x i8]* %3, i64 0, i64 0
  %51 = call i32 @ishuiwen(i8* %50)
  %52 = icmp ne i32 %51, 0
  br i1 %52, label %53, label %56

53:                                               ; preds = %46
  %54 = getelementptr inbounds [510 x i8], [510 x i8]* %3, i64 0, i64 0
  %55 = call i32 (i8*, ...) @printf(i8* getelementptr inbounds ([4 x i8], [4 x i8]* @.str, i64 0, i64 0), i8* %54)
  br label %56

56:                                               ; preds = %53, %46
  br label %57

57:                                               ; preds = %56
  %58 = load i32, i32* %5, align 4
  %59 = add nsw i32 %58, 1
  store i32 %59, i32* %5, align 4
  br label %16

60:                                               ; preds = %16
  br label %61

61:                                               ; preds = %60
  %62 = load i32, i32* %4, align 4
  %63 = add nsw i32 %62, 1
  store i32 %63, i32* %4, align 4
  br label %9

64:                                               ; preds = %9
  ret i32 0
}

declare dso_local i32 @gets(...) #2

declare dso_local i32 @printf(i8*, ...) #2


!llvm.module.flags = !{!0}
!llvm.ident = !{!1}

!0 = !{i32 1, !"wchar_size", i32 4}
!1 = !{!"clang version 10.0.0-4ubuntu1 "}
